target datalayout = "e-m:e-p270:32:32-p271:32:32-p272:64:64-i64:64-i128:128-f80:128-n8:16:32:64-S128"
target triple = "x86_64-pc-linux-gnu"

%struct.Abc_Frame_t_ = type { ptr, ptr, ptr, ptr, ptr, ptr, ptr, ptr, ptr, ptr, i32, i32, i32, i32, i32, ptr, float, float, i32, i32, ptr, ptr, ptr, double, double, ptr, ptr, ptr, ptr, ptr, ptr, ptr, ptr, ptr, ptr, ptr, ptr, float, ptr, i32, ptr, ptr, ptr, ptr, ptr, i32, i32, i32, i32, i32, i32, ptr, ptr, ptr, ptr, ptr, ptr, i32, i32, ptr, ptr, ptr, ptr, ptr, ptr, ptr, ptr, ptr, ptr, ptr, ptr, ptr, ptr, ptr, ptr, ptr, ptr, ptr, ptr, ptr, ptr, ptr, ptr, ptr, ptr, ptr, ptr, ptr, ptr }
%struct.Vec_Int_t_ = type { i32, i32, ptr }

@.str.41 = private unnamed_addr constant [4 x i8] c"yes\00", align 1
@.str.42 = private unnamed_addr constant [3 x i8] c"no\00", align 1
@.str.45 = private unnamed_addr constant [62 x i8] c"\09-v     : toggle printing verbose information [default = %s]\0A\00", align 1
@.str.46 = private unnamed_addr constant [35 x i8] c"\09-h     : print the command usage\0A\00", align 1
@.str.162 = private unnamed_addr constant [3 x i8] c"vh\00", align 1
@.str.185 = private unnamed_addr constant [49 x i8] c"Abc_CommandInvPs(): There is no current design.\0A\00", align 1
@.str.186 = private unnamed_addr constant [49 x i8] c"Abc_CommandInvPs(): Invariant is not available.\0A\00", align 1
@.str.187 = private unnamed_addr constant [21 x i8] c"usage: inv_ps [-vh]\0A\00", align 1
@.str.188 = private unnamed_addr constant [53 x i8] c"\09         prints statistics for inductive invariant\0A\00", align 1
@.str.189 = private unnamed_addr constant [75 x i8] c"\09         (in the case of 'sat' or 'undecided', inifity clauses are used)\0A\00", align 1

; Function Attrs: inlinehint nounwind uwtable
define internal void @Vec_IntFree(ptr noundef %0) #2 {
  %2 = alloca ptr, align 8
  store ptr %0, ptr %2, align 8, !tbaa !111
  %3 = load ptr, ptr %2, align 8, !tbaa !111
  %4 = getelementptr inbounds nuw %struct.Vec_Int_t_, ptr %3, i32 0, i32 2
  %5 = load ptr, ptr %4, align 8, !tbaa !138
  %6 = icmp ne ptr %5, null
  br i1 %6, label %7, label %13

7:                                                ; preds = %1
  %8 = load ptr, ptr %2, align 8, !tbaa !111
  %9 = getelementptr inbounds nuw %struct.Vec_Int_t_, ptr %8, i32 0, i32 2
  %10 = load ptr, ptr %9, align 8, !tbaa !138
  call void @free(ptr noundef %10) #12
  %11 = load ptr, ptr %2, align 8, !tbaa !111
  %12 = getelementptr inbounds nuw %struct.Vec_Int_t_, ptr %11, i32 0, i32 2
  store ptr null, ptr %12, align 8, !tbaa !138
  br label %14

13:                                               ; preds = %1
  br label %14

14:                                               ; preds = %13, %7
  %15 = load ptr, ptr %2, align 8, !tbaa !111
  %16 = icmp ne ptr %15, null
  br i1 %16, label %17, label %19

17:                                               ; preds = %14
  %18 = load ptr, ptr %2, align 8, !tbaa !111
  call void @free(ptr noundef %18) #12
  store ptr null, ptr %2, align 8, !tbaa !111
  br label %20

19:                                               ; preds = %14
  br label %20

20:                                               ; preds = %19, %17
  ret void
}

; Function Attrs: inlinehint nounwind uwtable
define internal ptr @Wlc_AbcGetInv(ptr noundef %0) #2 {
  %2 = alloca ptr, align 8
  store ptr %0, ptr %2, align 8, !tbaa !3
  %3 = load ptr, ptr %2, align 8, !tbaa !3
  %4 = getelementptr inbounds nuw %struct.Abc_Frame_t_, ptr %3, i32 0, i32 72
  %5 = load ptr, ptr %4, align 8, !tbaa !146
  ret ptr %5
}

; Function Attrs: inlinehint nounwind uwtable
define internal ptr @Wlc_AbcGetNtk(ptr noundef %0) #2 {
  %2 = alloca ptr, align 8
  store ptr %0, ptr %2, align 8, !tbaa !3
  %3 = load ptr, ptr %2, align 8, !tbaa !3
  %4 = getelementptr inbounds nuw %struct.Abc_Frame_t_, ptr %3, i32 0, i32 71
  %5 = load ptr, ptr %4, align 8, !tbaa !132
  ret ptr %5
}

; Function Attrs: nounwind uwtable
define internal i32 @Abc_CommandInvPs(ptr noundef %0, i32 noundef %1, ptr noundef %2) #0 {
  %4 = alloca i32, align 4
  %5 = alloca ptr, align 8
  %6 = alloca i32, align 4
  %7 = alloca ptr, align 8
  %8 = alloca ptr, align 8
  %9 = alloca ptr, align 8
  %10 = alloca i32, align 4
  %11 = alloca i32, align 4
  %12 = alloca i32, align 4
  store ptr %0, ptr %5, align 8, !tbaa !3
  store i32 %1, ptr %6, align 4, !tbaa !8
  store ptr %2, ptr %7, align 8, !tbaa !10
  call void @llvm.lifetime.start.p0(i64 8, ptr %8) #12
  %13 = load ptr, ptr %5, align 8, !tbaa !3
  %14 = call ptr @Wlc_AbcGetNtk(ptr noundef %13)
  store ptr %14, ptr %8, align 8, !tbaa !12
  call void @llvm.lifetime.start.p0(i64 8, ptr %9) #12
  call void @llvm.lifetime.start.p0(i64 4, ptr %10) #12
  call void @llvm.lifetime.start.p0(i64 4, ptr %11) #12
  store i32 0, ptr %11, align 4, !tbaa !8
  call void (...) @Extra_UtilGetoptReset()
  br label %15

15:                                               ; preds = %27, %3
  %16 = load i32, ptr %6, align 4, !tbaa !8
  %17 = load ptr, ptr %7, align 8, !tbaa !10
  %18 = call i32 @Extra_UtilGetopt(i32 noundef %16, ptr noundef %17, ptr noundef @.str.162)
  store i32 %18, ptr %10, align 4, !tbaa !8
  %19 = icmp ne i32 %18, -1
  br i1 %19, label %20, label %28

20:                                               ; preds = %15
  %21 = load i32, ptr %10, align 4, !tbaa !8
  switch i32 %21, label %26 [
    i32 118, label %22
    i32 104, label %25
  ]

22:                                               ; preds = %20
  %23 = load i32, ptr %11, align 4, !tbaa !8
  %24 = xor i32 %23, 1
  store i32 %24, ptr %11, align 4, !tbaa !8
  br label %27

25:                                               ; preds = %20
  br label %45

26:                                               ; preds = %20
  br label %45

27:                                               ; preds = %22
  br label %15, !llvm.loop !122

28:                                               ; preds = %15
  %29 = load ptr, ptr %8, align 8, !tbaa !12
  %30 = icmp eq ptr %29, null
  br i1 %30, label %31, label %32

31:                                               ; preds = %28
  call void (i32, ptr, ...) @Abc_Print(i32 noundef 1, ptr noundef @.str.185)
  store i32 0, ptr %4, align 4
  store i32 1, ptr %12, align 4
  br label %49

32:                                               ; preds = %28
  %33 = load ptr, ptr %5, align 8, !tbaa !3
  %34 = call ptr @Wlc_AbcGetInv(ptr noundef %33)
  %35 = icmp eq ptr %34, null
  br i1 %35, label %36, label %37

36:                                               ; preds = %32
  call void (i32, ptr, ...) @Abc_Print(i32 noundef 1, ptr noundef @.str.186)
  store i32 0, ptr %4, align 4
  store i32 1, ptr %12, align 4
  br label %49

37:                                               ; preds = %32
  %38 = load ptr, ptr %5, align 8, !tbaa !3
  %39 = call ptr @Wlc_AbcGetInv(ptr noundef %38)
  %40 = call ptr @Pdr_InvCounts(ptr noundef %39)
  store ptr %40, ptr %9, align 8, !tbaa !111
  %41 = load ptr, ptr %8, align 8, !tbaa !12
  %42 = load ptr, ptr %9, align 8, !tbaa !111
  %43 = load i32, ptr %11, align 4, !tbaa !8
  call void @Wlc_NtkPrintInvStats(ptr noundef %41, ptr noundef %42, i32 noundef %43)
  %44 = load ptr, ptr %9, align 8, !tbaa !111
  call void @Vec_IntFree(ptr noundef %44)
  store i32 0, ptr %4, align 4
  store i32 1, ptr %12, align 4
  br label %49

45:                                               ; preds = %26, %25
  call void (i32, ptr, ...) @Abc_Print(i32 noundef -2, ptr noundef @.str.187)
  call void (i32, ptr, ...) @Abc_Print(i32 noundef -2, ptr noundef @.str.188)
  call void (i32, ptr, ...) @Abc_Print(i32 noundef -2, ptr noundef @.str.189)
  %46 = load i32, ptr %11, align 4, !tbaa !8
  %47 = icmp ne i32 %46, 0
  %48 = select i1 %47, ptr @.str.41, ptr @.str.42
  call void (i32, ptr, ...) @Abc_Print(i32 noundef -2, ptr noundef @.str.45, ptr noundef %48)
  call void (i32, ptr, ...) @Abc_Print(i32 noundef -2, ptr noundef @.str.46)
  store i32 1, ptr %4, align 4
  store i32 1, ptr %12, align 4
  br label %49

49:                                               ; preds = %45, %37, %36, %31
  call void @llvm.lifetime.end.p0(i64 4, ptr %11) #12
  call void @llvm.lifetime.end.p0(i64 4, ptr %10) #12
  call void @llvm.lifetime.end.p0(i64 8, ptr %9) #12
  call void @llvm.lifetime.end.p0(i64 8, ptr %8) #12
  %50 = load i32, ptr %4, align 4
  ret i32 %50
}