; Function Attrs: nounwind uwtable
define internal range(i32 0, 2) i32 @Abc_CommandInvPs(ptr noundef readonly captures(none) %0, i32 noundef %1, ptr noundef %2) #0 {
  %4 = getelementptr i8, ptr %0, i64 504
  %.val18 = load ptr, ptr %4, align 8, !tbaa !27
  tail call void (...) @Extra_UtilGetoptReset() #17
  br label %5

5:                                                ; preds = %7, %3
  %.0 = phi i32 [ 0, %3 ], [ %8, %7 ]
  %6 = tail call i32 @Extra_UtilGetopt(i32 noundef %1, ptr noundef %2, ptr noundef nonnull @.str.162) #17
  switch i32 %6, label %21 [
    i32 -1, label %9
    i32 118, label %7
  ]

7:                                                ; preds = %5
  %8 = xor i32 %.0, 1
  br label %5, !llvm.loop !108

9:                                                ; preds = %5
  %10 = icmp eq ptr %.val18, null
  br i1 %10, label %11, label %12

11:                                               ; preds = %9
  tail call void (i32, ptr, ...) @Abc_Print(i32 noundef 1, ptr noundef nonnull @.str.185)
  br label %23

12:                                               ; preds = %9
  %13 = getelementptr i8, ptr %0, i64 512
  %.val = load ptr, ptr %13, align 8, !tbaa !109
  %14 = icmp eq ptr %.val, null
  br i1 %14, label %15, label %16

15:                                               ; preds = %12
  tail call void (i32, ptr, ...) @Abc_Print(i32 noundef 1, ptr noundef nonnull @.str.186)
  br label %23

16:                                               ; preds = %12
  %17 = tail call ptr @Pdr_InvCounts(ptr noundef nonnull %.val) #17
  tail call void @Wlc_NtkPrintInvStats(ptr noundef nonnull %.val18, ptr noundef %17, i32 noundef %.0) #17
  %18 = getelementptr inbounds nuw i8, ptr %17, i64 8
  %19 = load ptr, ptr %18, align 8, !tbaa !103
  %.not.i = icmp eq ptr %19, null
  br i1 %.not.i, label %Vec_IntFree.exit, label %20

20:                                               ; preds = %16
  tail call void @free(ptr noundef nonnull %19) #17
  br label %Vec_IntFree.exit

Vec_IntFree.exit:                                 ; preds = %16, %20
  tail call void @free(ptr noundef nonnull %17) #17
  br label %23

21:                                               ; preds = %5
  tail call void (i32, ptr, ...) @Abc_Print(i32 noundef -2, ptr noundef nonnull @.str.187)
  tail call void (i32, ptr, ...) @Abc_Print(i32 noundef -2, ptr noundef nonnull @.str.188)
  tail call void (i32, ptr, ...) @Abc_Print(i32 noundef -2, ptr noundef nonnull @.str.189)
  %.not16 = icmp eq i32 %.0, 0
  %22 = select i1 %.not16, ptr @.str.42, ptr @.str.41
  tail call void (i32, ptr, ...) @Abc_Print(i32 noundef -2, ptr noundef nonnull @.str.45, ptr noundef nonnull %22)
  tail call void (i32, ptr, ...) @Abc_Print(i32 noundef -2, ptr noundef nonnull @.str.46)
  br label %23

23:                                               ; preds = %21, %Vec_IntFree.exit, %15, %11
  %.013 = phi i32 [ 1, %21 ], [ 0, %11 ], [ 0, %15 ], [ 0, %Vec_IntFree.exit ]
  ret i32 %.013
}